; Function Attrs: nounwind uwtable
define void @ASYNC_block_pause() local_unnamed_addr #0 {
  %1 = tail call i32 @OPENSSL_init_crypto(i64 noundef 256, ptr noundef null) #8
  %.not = icmp eq i32 %1, 0
  br i1 %.not, label %13, label %2

2:                                                ; preds = %0
  %3 = tail call ptr @CRYPTO_THREAD_get_local(ptr noundef nonnull @ctxkey) #8
  %4 = icmp eq ptr %3, null
  br i1 %4, label %13, label %5

5:                                                ; preds = %2
  %6 = getelementptr inbounds nuw i8, ptr %3, i64 1176
  %7 = load ptr, ptr %6, align 8, !tbaa !3
  %8 = icmp eq ptr %7, null
  br i1 %8, label %13, label %9

9:                                                ; preds = %5
  %10 = getelementptr inbounds nuw i8, ptr %3, i64 1184
  %11 = load i32, ptr %10, align 8, !tbaa !28
  %12 = add i32 %11, 1
  store i32 %12, ptr %10, align 8, !tbaa !28
  br label %13

13:                                               ; preds = %2, %5, %0, %9
  ret void
}